target datalayout = "e-m:e-p270:32:32-p271:32:32-p272:64:64-i64:64-i128:128-f80:128-n8:16:32:64-S128"
target triple = "x86_64-pc-linux-gnu"

%"class.clang::SourceLocation" = type { i32 }
%"struct.clang::format::WhitespaceManager::Change" = type { ptr, i8, %"class.clang::SourceRange", i32, i32, %"class.std::__cxx11::basic_string", %"class.std::__cxx11::basic_string", i8, i8, i32, i8, i8, i32, i32, i32, ptr, i32, i32 }
%"class.clang::SourceRange" = type { %"class.clang::SourceLocation", %"class.clang::SourceLocation" }
%"class.std::__cxx11::basic_string" = type { %"struct.std::__cxx11::basic_string<char>::_Alloc_hider", i64, %union.anon }
%"struct.std::__cxx11::basic_string<char>::_Alloc_hider" = type { ptr }
%union.anon = type { i64, [8 x i8] }
%"class.llvm::SmallVectorBase" = type { ptr, i32, i32 }
%"class.clang::format::WhitespaceManager" = type <{ %"class.llvm::SmallVector.94", ptr, %"class.clang::tooling::Replacements", ptr, i8, [7 x i8] }>
%"class.llvm::SmallVector.94" = type { %"class.llvm::SmallVectorImpl.95", %"struct.llvm::SmallVectorStorage.98" }
%"class.llvm::SmallVectorImpl.95" = type { %"class.llvm::SmallVectorTemplateBase.96" }
%"class.llvm::SmallVectorTemplateBase.96" = type { %"class.llvm::SmallVectorTemplateCommon.97" }
%"class.llvm::SmallVectorTemplateCommon.97" = type { %"class.llvm::SmallVectorBase" }
%"struct.llvm::SmallVectorStorage.98" = type { [2176 x i8] }
%"class.clang::tooling::Replacements" = type { %"class.std::set" }
%"class.std::set" = type { %"class.std::_Rb_tree" }
%"class.std::_Rb_tree" = type { %"struct.std::_Rb_tree<clang::tooling::Replacement, clang::tooling::Replacement, std::_Identity<clang::tooling::Replacement>, std::less<clang::tooling::Replacement>>::_Rb_tree_impl" }
%"struct.std::_Rb_tree<clang::tooling::Replacement, clang::tooling::Replacement, std::_Identity<clang::tooling::Replacement>, std::less<clang::tooling::Replacement>>::_Rb_tree_impl" = type { [8 x i8], %"struct.std::_Rb_tree_header" }
%"struct.std::_Rb_tree_header" = type { %"struct.std::_Rb_tree_node_base", i64 }
%"struct.std::_Rb_tree_node_base" = type { i32, ptr, ptr, ptr }

; Function Attrs: mustprogress nounwind uwtable
define linkonce_odr hidden noundef ptr @_ZNK4llvm25SmallVectorTemplateCommonIN5clang6format17WhitespaceManager6ChangeEvE5beginEv(ptr noundef nonnull align 8 dereferenceable(16) %0) #0 comdat align 2 {
  %2 = alloca ptr, align 8
  store ptr %0, ptr %2, align 8
  %3 = load ptr, ptr %2, align 8
  %4 = getelementptr inbounds nuw %"class.llvm::SmallVectorBase", ptr %3, i32 0, i32 0
  %5 = load ptr, ptr %4, align 8
  ret ptr %5
}

; Function Attrs: mustprogress nounwind uwtable
define linkonce_odr hidden noundef nonnull align 8 dereferenceable(136) ptr @_ZNK4llvm25SmallVectorTemplateCommonIN5clang6format17WhitespaceManager6ChangeEvEixEm(ptr noundef nonnull align 8 dereferenceable(16) %0, i64 noundef %1) #0 comdat align 2 {
  %3 = alloca ptr, align 8
  %4 = alloca i64, align 8
  store ptr %0, ptr %3, align 8
  store i64 %1, ptr %4, align 8
  %5 = load ptr, ptr %3, align 8
  %6 = call noundef ptr @_ZNK4llvm25SmallVectorTemplateCommonIN5clang6format17WhitespaceManager6ChangeEvE5beginEv(ptr noundef nonnull align 8 dereferenceable(16) %5)
  %7 = load i64, ptr %4, align 8
  %8 = getelementptr inbounds %"struct.clang::format::WhitespaceManager::Change", ptr %6, i64 %7
  ret ptr %8
}

; Function Attrs: mustprogress nounwind uwtable
define dso_local noundef i32 @_ZNK5clang6format17WhitespaceManager18calculateCellWidthEjjb(ptr noundef nonnull align 8 dereferenceable(2257) %0, i32 noundef %1, i32 noundef %2, i1 noundef zeroext %3) #0 align 2 {
  %5 = alloca ptr, align 8
  %6 = alloca i32, align 4
  %7 = alloca i32, align 4
  %8 = alloca i8, align 1
  %9 = alloca i32, align 4
  %10 = alloca i32, align 4
  store ptr %0, ptr %5, align 8
  store i32 %1, ptr %6, align 4
  store i32 %2, ptr %7, align 4
  %11 = zext i1 %3 to i8
  store i8 %11, ptr %8, align 1
  %12 = load ptr, ptr %5, align 8
  store i32 0, ptr %9, align 4
  %13 = load i32, ptr %6, align 4
  store i32 %13, ptr %10, align 4
  br label %14

14:                                               ; preds = %50, %4
  %15 = load i32, ptr %10, align 4
  %16 = load i32, ptr %7, align 4
  %17 = icmp ult i32 %15, %16
  br i1 %17, label %18, label %53

18:                                               ; preds = %14
  %19 = getelementptr inbounds nuw %"class.clang::format::WhitespaceManager", ptr %12, i32 0, i32 0
  %20 = load i32, ptr %10, align 4
  %21 = zext i32 %20 to i64
  %22 = call noundef nonnull align 8 dereferenceable(136) ptr @_ZNK4llvm25SmallVectorTemplateCommonIN5clang6format17WhitespaceManager6ChangeEvEixEm(ptr noundef nonnull align 8 dereferenceable(16) %19, i64 noundef %21)
  %23 = getelementptr inbounds nuw %"struct.clang::format::WhitespaceManager::Change", ptr %22, i32 0, i32 4
  %24 = load i32, ptr %23, align 8
  %25 = icmp ugt i32 %24, 0
  br i1 %25, label %26, label %27

26:                                               ; preds = %18
  store i32 0, ptr %9, align 4
  br label %27

27:                                               ; preds = %26, %18
  %28 = getelementptr inbounds nuw %"class.clang::format::WhitespaceManager", ptr %12, i32 0, i32 0
  %29 = load i32, ptr %10, align 4
  %30 = zext i32 %29 to i64
  %31 = call noundef nonnull align 8 dereferenceable(136) ptr @_ZNK4llvm25SmallVectorTemplateCommonIN5clang6format17WhitespaceManager6ChangeEvEixEm(ptr noundef nonnull align 8 dereferenceable(16) %28, i64 noundef %30)
  %32 = getelementptr inbounds nuw %"struct.clang::format::WhitespaceManager::Change", ptr %31, i32 0, i32 12
  %33 = load i32, ptr %32, align 4
  %34 = load i32, ptr %9, align 4
  %35 = add i32 %34, %33
  store i32 %35, ptr %9, align 4
  %36 = load i8, ptr %8, align 1
  %37 = trunc i8 %36 to i1
  br i1 %37, label %38, label %45

38:                                               ; preds = %27
  %39 = getelementptr inbounds nuw %"class.clang::format::WhitespaceManager", ptr %12, i32 0, i32 0
  %40 = load i32, ptr %10, align 4
  %41 = zext i32 %40 to i64
  %42 = call noundef nonnull align 8 dereferenceable(136) ptr @_ZNK4llvm25SmallVectorTemplateCommonIN5clang6format17WhitespaceManager6ChangeEvEixEm(ptr noundef nonnull align 8 dereferenceable(16) %39, i64 noundef %41)
  %43 = getelementptr inbounds nuw %"struct.clang::format::WhitespaceManager::Change", ptr %42, i32 0, i32 9
  %44 = load i32, ptr %43, align 4
  br label %46

45:                                               ; preds = %27
  br label %46

46:                                               ; preds = %45, %38
  %47 = phi i32 [ %44, %38 ], [ 0, %45 ]
  %48 = load i32, ptr %9, align 4
  %49 = add i32 %48, %47
  store i32 %49, ptr %9, align 4
  br label %50

50:                                               ; preds = %46
  %51 = load i32, ptr %10, align 4
  %52 = add i32 %51, 1
  store i32 %52, ptr %10, align 4
  br label %14, !llvm.loop !48

53:                                               ; preds = %14
  %54 = load i32, ptr %9, align 4
  ret i32 %54
}