; Function Attrs: mustprogress nofree norecurse nosync nounwind willreturn memory(read, inaccessiblemem: none) uwtable
define dso_local noundef i32 @_ZNK5clang6format17WhitespaceManager18calculateCellWidthEjjb(ptr nocapture noundef nonnull readonly align 8 dereferenceable(2257) %0, i32 noundef %1, i32 noundef %2, i1 noundef zeroext %3) local_unnamed_addr #6 align 2 {
  %5 = icmp ult i32 %1, %2
  br i1 %5, label %.lr.ph, label %._crit_edge

.lr.ph:                                           ; preds = %4
  %6 = load ptr, ptr %0, align 8
  %7 = zext i32 %1 to i64
  %wide.trip.count20 = zext i32 %2 to i64
  br i1 %3, label %.lr.ph.split.us, label %.lr.ph.split

.lr.ph.split.us:                                  ; preds = %.lr.ph, %.lr.ph.split.us
  %indvars.iv17 = phi i64 [ %indvars.iv.next18, %.lr.ph.split.us ], [ %7, %.lr.ph ]
  %.01112.us = phi i32 [ %16, %.lr.ph.split.us ], [ 0, %.lr.ph ]
  %8 = getelementptr inbounds %"struct.clang::format::WhitespaceManager::Change", ptr %6, i64 %indvars.iv17
  %9 = getelementptr inbounds nuw i8, ptr %8, i64 24
  %10 = load i32, ptr %9, align 8
  %.not.us = icmp eq i32 %10, 0
  %spec.select.us = select i1 %.not.us, i32 %.01112.us, i32 0
  %11 = getelementptr inbounds nuw i8, ptr %8, i64 108
  %12 = load i32, ptr %11, align 4
  %13 = add i32 %spec.select.us, %12
  %14 = getelementptr inbounds nuw i8, ptr %8, i64 100
  %15 = load i32, ptr %14, align 4
  %16 = add i32 %13, %15
  %indvars.iv.next18 = add nuw nsw i64 %indvars.iv17, 1
  %exitcond21.not = icmp eq i64 %indvars.iv.next18, %wide.trip.count20
  br i1 %exitcond21.not, label %._crit_edge, label %.lr.ph.split.us, !llvm.loop !118

.lr.ph.split:                                     ; preds = %.lr.ph, %.lr.ph.split
  %indvars.iv = phi i64 [ %indvars.iv.next, %.lr.ph.split ], [ %7, %.lr.ph ]
  %.01112 = phi i32 [ %22, %.lr.ph.split ], [ 0, %.lr.ph ]
  %17 = getelementptr inbounds %"struct.clang::format::WhitespaceManager::Change", ptr %6, i64 %indvars.iv
  %18 = getelementptr inbounds nuw i8, ptr %17, i64 24
  %19 = load i32, ptr %18, align 8
  %.not = icmp eq i32 %19, 0
  %spec.select = select i1 %.not, i32 %.01112, i32 0
  %20 = getelementptr inbounds nuw i8, ptr %17, i64 108
  %21 = load i32, ptr %20, align 4
  %22 = add i32 %spec.select, %21
  %indvars.iv.next = add nuw nsw i64 %indvars.iv, 1
  %exitcond.not = icmp eq i64 %indvars.iv.next, %wide.trip.count20
  br i1 %exitcond.not, label %._crit_edge, label %.lr.ph.split, !llvm.loop !118

._crit_edge:                                      ; preds = %.lr.ph.split, %.lr.ph.split.us, %4
  %.011.lcssa = phi i32 [ 0, %4 ], [ %16, %.lr.ph.split.us ], [ %22, %.lr.ph.split ]
  ret i32 %.011.lcssa
}